; Function Attrs: mustprogress nofree norecurse nosync nounwind willreturn memory(argmem: write) uwtable
define dso_local void @_ZN3net23QuicBufferedPacketStore18BufferedPacketListC2Ev(ptr noundef nonnull align 8 dereferenceable(32) %this) unnamed_addr #4 align 2 personality ptr @__gxx_personality_v0 {
invoke.cont:
  %_M_prev.i.i.i.i.i = getelementptr inbounds i8, ptr %this, i64 8
  store ptr %this, ptr %_M_prev.i.i.i.i.i, align 8
  store ptr %this, ptr %this, align 8
  %_M_size.i.i.i.i.i = getelementptr inbounds i8, ptr %this, i64 16
  tail call void @llvm.memset.p0.i64(ptr noundef nonnull align 8 dereferenceable(16) %_M_size.i.i.i.i.i, i8 0, i64 16, i1 false)
  ret void
}